(lp0
(I0
I1
tp1
a(I1
I1
tp2
a(I2
I1
tp3
a(I3
I1
tp4
a(I4
I1
tp5
a(I5
I1
tp6
a(I6
I1
tp7
a(I7
I1
tp8
a(I8
I1
tp9
a(I9
I1
tp10
a(I10
I1
tp11
a(I11
I1
tp12
a(I12
I2
tp13
a(I13
I1
tp14
a(I14
I1
tp15
a(I15
I1
tp16
a(I16
I1
tp17
a(I17
I2
tp18
a(I18
I1
tp19
a(I19
I1
tp20
a(I20
I1
tp21
a(I21
I1
tp22
a(I22
I1
tp23
a(I23
I5
tp24
a(I24
I1
tp25
a(I25
I5
tp26
a(I26
I1
tp27
a(I27
I1
tp28
a(I28
I6
tp29
a(I29
I1
tp30
a(I30
I1
tp31
a(I31
I1
tp32
a(I32
I2
tp33
a(I33
I1
tp34
a(I34
I1
tp35
a(I35
I1
tp36
a(I36
I3
tp37
a(I37
I2
tp38
a(I38
I5
tp39
a(I39
I1
tp40
a(I40
I1
tp41
a(I41
I1
tp42
a(I42
I1
tp43
a(I43
I2
tp44
a(I44
I2
tp45
a(I45
I1
tp46
a(I46
I2
tp47
a(I47
I1
tp48
a(I48
I1
tp49
a(I49
I2
tp50
a(I50
I1
tp51
a(I51
I2
tp52
a(I52
I1
tp53
a(I53
I1
tp54
a(I54
I1
tp55
a(I55
I1
tp56
a(I56
I2
tp57
a(I57
I1
tp58
a(I58
I1
tp59
a(I59
I3
tp60
a(I60
I1
tp61
a(I61
I1
tp62
a(I62
I3
tp63
a(I63
I1
tp64
a(I64
I1
tp65
a(I65
I1
tp66
a(I66
I1
tp67
a(I67
I4
tp68
a(I68
I1
tp69
a(I69
I1
tp70
a(I70
I2
tp71
a(I71
I15
tp72
a(I72
I4
tp73
a(I73
I1
tp74
a(I74
I1
tp75
a(I75
I2
tp76
a(I76
I1
tp77
a(I77
I1
tp78
a(I78
I2
tp79
a(I79
I1
tp80
a(I80
I1
tp81
a(I81
I1
tp82
a(I82
I3
tp83
a(I83
I2
tp84
a(I84
I1
tp85
a(I85
I1
tp86
a(I86
I8
tp87
a(I87
I1
tp88
a(I88
I5
tp89
a(I89
I1
tp90
a(I90
I1
tp91
a(I91
I1
tp92
a(I92
I1
tp93
a(I93
I1
tp94
a(I94
I2
tp95
a(I95
I3
tp96
a(I96
I1
tp97
a(I97
I14
tp98
a(I98
I4
tp99
a(I99
I13
tp100
a(I100
I1
tp101
a(I101
I5
tp102
a(I102
I1
tp103
a(I103
I1
tp104
a(I104
I1
tp105
a(I105
I5
tp106
a(I106
I2
tp107
a(I107
I1
tp108
a(I108
I4
tp109
a(I109
I1
tp110
a(I110
I11
tp111
a(I111
I1
tp112
a(I112
I1
tp113
a(I113
I1
tp114
a(I114
I2
tp115
a(I115
I1
tp116
a(I116
I1
tp117
a(I117
I1
tp118
a(I118
I1
tp119
a(I119
I1
tp120
a(I120
I1
tp121
a(I121
I5
tp122
a(I122
I2
tp123
a(I123
I2
tp124
a(I124
I1
tp125
a(I125
I2
tp126
a(I126
I1
tp127
a(I127
I1
tp128
a(I128
I1
tp129
a(I129
I8
tp130
a(I130
I1
tp131
a(I131
I1
tp132
a(I132
I1
tp133
a(I133
I1
tp134
a(I134
I1
tp135
a(I135
I1
tp136
a(I136
I2
tp137
a(I137
I3
tp138
a(I138
I1
tp139
a(I139
I1
tp140
a(I140
I1
tp141
a.(lp0
(I7
I1
tp1
a(I19
I1
tp2
a(I22
I1
tp3
a(I23
I1
tp4
a(I28
I1
tp5
a(I43
I1
tp6
a(I46
I1
tp7
a(I47
I1
tp8
a(I49
I2
tp9
a(I51
I1
tp10
a(I52
I1
tp11
a(I53
I1
tp12
a(I55
I1
tp13
a(I62
I2
tp14
a(I67
I2
tp15
a(I69
I1
tp16
a(I70
I1
tp17
a(I71
I5
tp18
a(I72
I5
tp19
a(I80
I1
tp20
a(I84
I1
tp21
a(I87
I1
tp22
a(I92
I1
tp23
a(I94
I2
tp24
a(I99
I4
tp25
a(I103
I1
tp26
a(I119
I2
tp27
a(I124
I1
tp28
a(I141
I4
tp29
a(I142
I1
tp30
a(I143
I2
tp31
a(I144
I1
tp32
a(I145
I1
tp33
a(I146
I2
tp34
a(I147
I1
tp35
a(I148
I1
tp36
a(I149
I4
tp37
a(I150
I2
tp38
a(I151
I1
tp39
a(I152
I1
tp40
a(I153
I1
tp41
a(I154
I1
tp42
a(I155
I1
tp43
a(I156
I1
tp44
a(I157
I1
tp45
a(I158
I1
tp46
a(I159
I4
tp47
a(I160
I1
tp48
a(I161
I2
tp49
a(I162
I1
tp50
a(I163
I1
tp51
a(I164
I3
tp52
a(I165
I1
tp53
a(I166
I1
tp54
a(I167
I1
tp55
a(I168
I1
tp56
a(I169
I1
tp57
a(I170
I1
tp58
a(I171
I1
tp59
a(I172
I1
tp60
a(I173
I1
tp61
a(I174
I1
tp62
a(I175
I1
tp63
a(I176
I2
tp64
a(I177
I1
tp65
a.(lp0
(I3
I1
tp1
a(I6
I1
tp2
a(I7
I1
tp3
a(I11
I1
tp4
a(I19
I3
tp5
a(I23
I1
tp6
a(I28
I14
tp7
a(I31
I4
tp8
a(I32
I1
tp9
a(I37
I1
tp10
a(I43
I3
tp11
a(I47
I2
tp12
a(I51
I1
tp13
a(I62
I8
tp14
a(I67
I9
tp15
a(I69
I3
tp16
a(I70
I5
tp17
a(I71
I22
tp18
a(I72
I37
tp19
a(I73
I1
tp20
a(I80
I5
tp21
a(I81
I1
tp22
a(I83
I2
tp23
a(I84
I4
tp24
a(I88
I1
tp25
a(I89
I1
tp26
a(I92
I1
tp27
a(I93
I2
tp28
a(I94
I1
tp29
a(I99
I2
tp30
a(I103
I1
tp31
a(I104
I1
tp32
a(I106
I2
tp33
a(I109
I1
tp34
a(I116
I1
tp35
a(I117
I2
tp36
a(I119
I3
tp37
a(I129
I3
tp38
a(I130
I1
tp39
a(I141
I2
tp40
a(I144
I1
tp41
a(I145
I6
tp42
a(I156
I2
tp43
a(I162
I1
tp44
a(I178
I1
tp45
a(I179
I1
tp46
a(I180
I1
tp47
a(I181
I1
tp48
a(I182
I1
tp49
a(I183
I1
tp50
a(I184
I1
tp51
a(I185
I1
tp52
a(I186
I4
tp53
a(I187
I2
tp54
a(I188
I1
tp55
a(I189
I1
tp56
a(I190
I1
tp57
a(I191
I2
tp58
a(I192
I1
tp59
a(I193
I2
tp60
a(I194
I2
tp61
a(I195
I1
tp62
a(I196
I1
tp63
a(I197
I1
tp64
a(I198
I1
tp65
a(I199
I2
tp66
a(I200
I1
tp67
a(I201
I1
tp68
a(I202
I1
tp69
a(I203
I1
tp70
a(I204
I4
tp71
a(I205
I1
tp72
a(I206
I3
tp73
a(I207
I5
tp74
a(I208
I1
tp75
a(I209
I1
tp76
a(I210
I1
tp77
a(I211
I2
tp78
a(I212
I1
tp79
a(I213
I1
tp80
a(I214
I2
tp81
a(I215
I1
tp82
a(I216
I1
tp83
a(I217
I1
tp84
a(I218
I1
tp85
a(I219
I1
tp86
a(I220
I1
tp87
a(I221
I1
tp88
a(I222
I1
tp89
a(I223
I2
tp90
a(I224
I2
tp91
a(I225
I1
tp92
a(I226
I1
tp93
a(I227
I1
tp94
a(I228
I1
tp95
a(I229
I1
tp96
a(I230
I1
tp97
a(I231
I1
tp98
a(I232
I1
tp99
a(I233
I2
tp100
a(I234
I2
tp101
a(I235
I2
tp102
a(I236
I1
tp103
a(I237
I1
tp104
a(I238
I2
tp105
a(I239
I1
tp106
a(I240
I1
tp107
a(I241
I5
tp108
a(I242
I1
tp109
a(I243
I2
tp110
a(I244
I1
tp111
a(I245
I1
tp112
a(I246
I2
tp113
a(I247
I1
tp114
a(I248
I1
tp115
a(I249
I1
tp116
a(I250
I1
tp117
a(I251
I1
tp118
a(I252
I1
tp119
a(I253
I1
tp120
a(I254
I1
tp121
a(I255
I2
tp122
a(I256
I3
tp123
a(I257
I1
tp124
a(I258
I1
tp125
a(I259
I1
tp126
a(I260
I1
tp127
a(I261
I1
tp128
a(I262
I1
tp129
a(I263
I1
tp130
a(I264
I1
tp131
a(I265
I1
tp132
a(I266
I1
tp133
a(I267
I1
tp134
a(I268
I1
tp135
a(I269
I1
tp136
a(I270
I1
tp137
a(I271
I2
tp138
a(I272
I2
tp139
a(I273
I1
tp140
a(I274
I2
tp141
a(I275
I1
tp142
a(I276
I1
tp143
a(I277
I1
tp144
a(I278
I2
tp145
a(I279
I1
tp146
a(I280
I1
tp147
a(I281
I1
tp148
a(I282
I2
tp149
a(I283
I1
tp150
a(I284
I1
tp151
a(I285
I1
tp152
a(I286
I1
tp153
a(I287
I1
tp154
a(I288
I1
tp155
a(I289
I1
tp156
a(I290
I1
tp157
a(I291
I2
tp158
a(I292
I1
tp159
a(I293
I1
tp160
a(I294
I1
tp161
a(I295
I1
tp162
a(I296
I1
tp163
a(I297
I1
tp164
a(I298
I1
tp165
a(I299
I1
tp166
a(I300
I1
tp167
a(I301
I1
tp168
a(I302
I1
tp169
a(I303
I3
tp170
a(I304
I1
tp171
a(I305
I1
tp172
a(I306
I1
tp173
a(I307
I1
tp174
a(I308
I1
tp175
a(I309
I2
tp176
a(I310
I2
tp177
a(I311
I1
tp178
a(I312
I1
tp179
a(I313
I1
tp180
a(I314
I2
tp181
a(I315
I2
tp182
a(I316
I4
tp183
a(I317
I1
tp184
a(I318
I1
tp185
a(I319
I2
tp186
a(I320
I1
tp187
a(I321
I1
tp188
a(I322
I1
tp189
a(I323
I1
tp190
a(I324
I2
tp191
a(I325
I1
tp192
a(I326
I1
tp193
a(I327
I1
tp194
a(I328
I1
tp195
a(I329
I1
tp196
a(I330
I2
tp197
a(I331
I1
tp198
a(I332
I1
tp199
a(I333
I1
tp200
a(I334
I1
tp201
a(I335
I3
tp202
a(I336
I1
tp203
a(I337
I1
tp204
a(I338
I3
tp205
a(I339
I1
tp206
a(I340
I1
tp207
a(I341
I1
tp208
a(I342
I1
tp209
a(I343
I1
tp210
a(I344
I1
tp211
a(I345
I2
tp212
a(I346
I3
tp213
a(I347
I1
tp214
a(I348
I1
tp215
a(I349
I4
tp216
a(I350
I1
tp217
a(I351
I1
tp218
a(I352
I1
tp219
a.(lp0
(I16
I1
tp1
a(I21
I1
tp2
a(I42
I2
tp3
a(I47
I3
tp4
a(I67
I9
tp5
a(I71
I13
tp6
a(I72
I21
tp7
a(I80
I1
tp8
a(I86
I2
tp9
a(I87
I1
tp10
a(I99
I9
tp11
a(I110
I3
tp12
a(I157
I1
tp13
a(I213
I1
tp14
a(I264
I1
tp15
a(I268
I2
tp16
a(I315
I1
tp17
a(I353
I1
tp18
a(I354
I1
tp19
a(I355
I1
tp20
a(I356
I1
tp21
a(I357
I2
tp22
a(I358
I1
tp23
a(I359
I1
tp24
a(I360
I1
tp25
a(I361
I1
tp26
a(I362
I1
tp27
a(I363
I1
tp28
a(I364
I1
tp29
a(I365
I1
tp30
a(I366
I1
tp31
a(I367
I1
tp32
a(I368
I1
tp33
a(I369
I1
tp34
a(I370
I1
tp35
a(I371
I1
tp36
a(I372
I1
tp37
a(I373
I1
tp38
a(I374
I1
tp39
a(I375
I2
tp40
a(I376
I1
tp41
a(I377
I1
tp42
a(I378
I1
tp43
a(I379
I1
tp44
a(I380
I3
tp45
a(I381
I1
tp46
a(I382
I1
tp47
a(I383
I2
tp48
a(I384
I1
tp49
a(I385
I1
tp50
a(I386
I1
tp51
a(I387
I1
tp52
a(I388
I5
tp53
a(I389
I1
tp54
a(I390
I1
tp55
a(I391
I1
tp56
a(I392
I1
tp57
a(I393
I1
tp58
a(I394
I1
tp59
a(I395
I1
tp60
a(I396
I1
tp61
a(I397
I1
tp62
a(I398
I1
tp63
a(I399
I1
tp64
a(I400
I1
tp65
a(I401
I1
tp66
a(I402
I2
tp67
a(I403
I1
tp68
a(I404
I1
tp69
a(I405
I1
tp70
a(I406
I1
tp71
a(I407
I2
tp72
a(I408
I1
tp73
a(I409
I1
tp74
a(I410
I1
tp75
a(I411
I1
tp76
a(I412
I1
tp77
a(I413
I1
tp78
a(I414
I1
tp79
a(I415
I1
tp80
a(I416
I1
tp81
a(I417
I1
tp82
a(I418
I1
tp83
a(I419
I1
tp84
a(I420
I3
tp85
a(I421
I5
tp86
a(I422
I1
tp87
a(I423
I1
tp88
a(I424
I1
tp89
a(I425
I1
tp90
a(I426
I1
tp91
a(I427
I1
tp92
a(I428
I1
tp93
a(I429
I4
tp94
a(I430
I1
tp95
a(I431
I2
tp96
a(I432
I1
tp97
a(I433
I1
tp98
a(I434
I1
tp99
a(I435
I1
tp100
a(I436
I1
tp101
a(I437
I1
tp102
a(I438
I1
tp103
a(I439
I1
tp104
a(I440
I1
tp105
a(I441
I1
tp106
a(I442
I1
tp107
a(I443
I4
tp108
a(I444
I1
tp109
a(I445
I1
tp110
a(I446
I1
tp111
a(I447
I1
tp112
a(I448
I1
tp113
a(I449
I1
tp114
a(I450
I1
tp115
a(I451
I1
tp116
a(I452
I1
tp117
a(I453
I1
tp118
a(I454
I1
tp119
a(I455
I1
tp120
a(I456
I1
tp121
a(I457
I1
tp122
a(I458
I1
tp123
a(I459
I2
tp124
a.(lp0
(I19
I1
tp1
a(I23
I2
tp2
a(I25
I1
tp3
a(I28
I6
tp4
a(I30
I1
tp5
a(I38
I1
tp6
a(I46
I2
tp7
a(I47
I3
tp8
a(I51
I3
tp9
a(I57
I1
tp10
a(I67
I6
tp11
a(I69
I1
tp12
a(I70
I3
tp13
a(I71
I14
tp14
a(I72
I17
tp15
a(I78
I1
tp16
a(I80
I3
tp17
a(I84
I1
tp18
a(I86
I1
tp19
a(I87
I2
tp20
a(I92
I1
tp21
a(I99
I9
tp22
a(I103
I1
tp23
a(I105
I1
tp24
a(I106
I1
tp25
a(I107
I1
tp26
a(I108
I1
tp27
a(I116
I1
tp28
a(I122
I1
tp29
a(I144
I1
tp30
a(I161
I1
tp31
a(I164
I2
tp32
a(I175
I1
tp33
a(I176
I10
tp34
a(I179
I1
tp35
a(I207
I1
tp36
a(I210
I1
tp37
a(I214
I2
tp38
a(I226
I1
tp39
a(I234
I1
tp40
a(I238
I1
tp41
a(I241
I1
tp42
a(I247
I1
tp43
a(I254
I1
tp44
a(I256
I1
tp45
a(I264
I1
tp46
a(I269
I1
tp47
a(I303
I1
tp48
a(I315
I1
tp49
a(I337
I1
tp50
a(I424
I1
tp51
a(I443
I2
tp52
a(I446
I1
tp53
a(I450
I1
tp54
a(I460
I1
tp55
a(I461
I1
tp56
a(I462
I1
tp57
a(I463
I1
tp58
a(I464
I1
tp59
a(I465
I1
tp60
a(I466
I1
tp61
a(I467
I1
tp62
a(I468
I1
tp63
a(I469
I1
tp64
a(I470
I1
tp65
a(I471
I1
tp66
a(I472
I1
tp67
a(I473
I1
tp68
a(I474
I2
tp69
a(I475
I1
tp70
a(I476
I1
tp71
a(I477
I1
tp72
a(I478
I2
tp73
a(I479
I1
tp74
a(I480
I1
tp75
a(I481
I1
tp76
a(I482
I4
tp77
a(I483
I1
tp78
a(I484
I2
tp79
a(I485
I1
tp80
a(I486
I1
tp81
a(I487
I1
tp82
a(I488
I1
tp83
a(I489
I2
tp84
a(I490
I1
tp85
a(I491
I1
tp86
a(I492
I1
tp87
a(I493
I1
tp88
a(I494
I1
tp89
a(I495
I1
tp90
a(I496
I1
tp91
a(I497
I1
tp92
a(I498
I1
tp93
a(I499
I4
tp94
a(I500
I1
tp95
a(I501
I1
tp96
a(I502
I1
tp97
a(I503
I1
tp98
a(I504
I1
tp99
a(I505
I1
tp100
a(I506
I4
tp101
a(I507
I1
tp102
a(I508
I1
tp103
a(I509
I1
tp104
a(I510
I1
tp105
a(I511
I1
tp106
a(I512
I1
tp107
a(I513
I1
tp108
a(I514
I1
tp109
a(I515
I1
tp110
a(I516
I2
tp111
a(I517
I1
tp112
a(I518
I3
tp113
a(I519
I1
tp114
a(I520
I1
tp115
a(I521
I5
tp116
a(I522
I1
tp117
a(I523
I1
tp118
a(I524
I1
tp119
a(I525
I1
tp120
a(I526
I1
tp121
a(I527
I1
tp122
a(I528
I1
tp123
a(I529
I1
tp124
a(I530
I1
tp125
a(I531
I1
tp126
a(I532
I2
tp127
a(I533
I1
tp128
a(I534
I2
tp129
a(I535
I1
tp130
a(I536
I1
tp131
a(I537
I2
tp132
a(I538
I2
tp133
a(I539
I1
tp134
a(I540
I1
tp135
a(I541
I1
tp136
a(I542
I1
tp137
a(I543
I1
tp138
a(I544
I5
tp139
a.(lp0
(I6
I1
tp1
a(I19
I1
tp2
a(I20
I1
tp3
a(I28
I7
tp4
a(I32
I6
tp5
a(I36
I1
tp6
a(I56
I1
tp7
a(I57
I1
tp8
a(I62
I5
tp9
a(I67
I5
tp10
a(I69
I1
tp11
a(I70
I5
tp12
a(I71
I20
tp13
a(I72
I12
tp14
a(I80
I3
tp15
a(I84
I4
tp16
a(I85
I1
tp17
a(I86
I4
tp18
a(I90
I1
tp19
a(I91
I1
tp20
a(I94
I1
tp21
a(I95
I5
tp22
a(I99
I14
tp23
a(I103
I1
tp24
a(I108
I1
tp25
a(I116
I1
tp26
a(I120
I1
tp27
a(I133
I1
tp28
a(I175
I1
tp29
a(I186
I1
tp30
a(I209
I1
tp31
a(I211
I1
tp32
a(I232
I1
tp33
a(I238
I2
tp34
a(I247
I1
tp35
a(I257
I1
tp36
a(I278
I2
tp37
a(I280
I1
tp38
a(I283
I1
tp39
a(I291
I1
tp40
a(I302
I5
tp41
a(I303
I1
tp42
a(I310
I1
tp43
a(I315
I1
tp44
a(I316
I1
tp45
a(I326
I1
tp46
a(I328
I1
tp47
a(I350
I1
tp48
a(I374
I1
tp49
a(I463
I2
tp50
a(I467
I1
tp51
a(I473
I1
tp52
a(I495
I2
tp53
a(I498
I3
tp54
a(I513
I1
tp55
a(I515
I2
tp56
a(I519
I1
tp57
a(I528
I1
tp58
a(I531
I1
tp59
a(I537
I4
tp60
a(I545
I1
tp61
a(I546
I1
tp62
a(I547
I4
tp63
a(I548
I2
tp64
a(I549
I1
tp65
a(I550
I2
tp66
a(I551
I5
tp67
a(I552
I1
tp68
a(I553
I1
tp69
a(I554
I1
tp70
a(I555
I1
tp71
a(I556
I2
tp72
a(I557
I1
tp73
a(I558
I1
tp74
a(I559
I1
tp75
a(I560
I2
tp76
a(I561
I2
tp77
a(I562
I1
tp78
a(I563
I1
tp79
a(I564
I1
tp80
a(I565
I2
tp81
a(I566
I1
tp82
a(I567
I1
tp83
a(I568
I4
tp84
a(I569
I1
tp85
a(I570
I1
tp86
a(I571
I2
tp87
a(I572
I1
tp88
a(I573
I2
tp89
a(I574
I3
tp90
a(I575
I5
tp91
a(I576
I4
tp92
a(I577
I1
tp93
a(I578
I1
tp94
a(I579
I1
tp95
a(I580
I1
tp96
a(I581
I3
tp97
a(I582
I1
tp98
a(I583
I1
tp99
a(I584
I1
tp100
a(I585
I2
tp101
a(I586
I1
tp102
a(I587
I1
tp103
a(I588
I1
tp104
a(I589
I6
tp105
a(I590
I1
tp106
a(I591
I1
tp107
a(I592
I1
tp108
a(I593
I1
tp109
a(I594
I1
tp110
a(I595
I2
tp111
a(I596
I2
tp112
a(I597
I1
tp113
a(I598
I5
tp114
a(I599
I4
tp115
a(I600
I3
tp116
a(I601
I1
tp117
a(I602
I1
tp118
a(I603
I1
tp119
a(I604
I1
tp120
a(I605
I1
tp121
a(I606
I1
tp122
a(I607
I1
tp123
a(I608
I2
tp124
a(I609
I1
tp125
a(I610
I1
tp126
a(I611
I1
tp127
a(I612
I3
tp128
a(I613
I1
tp129
a(I614
I1
tp130
a(I615
I1
tp131
a(I616
I1
tp132
a(I617
I1
tp133
a(I618
I1
tp134
a(I619
I1
tp135
a(I620
I1
tp136
a(I621
I1
tp137
a(I622
I1
tp138
a(I623
I1
tp139
a(I624
I1
tp140
a(I625
I1
tp141
a(I626
I1
tp142
a(I627
I1
tp143
a(I628
I2
tp144
a(I629
I2
tp145
a(I630
I5
tp146
a(I631
I1
tp147
a(I632
I7
tp148
a(I633
I1
tp149
a(I634
I1
tp150
a(I635
I3
tp151
a(I636
I1
tp152
a(I637
I1
tp153
a(I638
I2
tp154
a(I639
I1
tp155
a(I640
I1
tp156
a(I641
I1
tp157
a(I642
I8
tp158
a(I643
I2
tp159
a(I644
I1
tp160
a(I645
I1
tp161
a(I646
I1
tp162
a(I647
I3
tp163
a(I648
I2
tp164
a.(lp0
(I0
I1
tp1
a(I7
I3
tp2
a(I12
I1
tp3
a(I16
I1
tp4
a(I19
I1
tp5
a(I23
I2
tp6
a(I26
I1
tp7
a(I28
I7
tp8
a(I43
I1
tp9
a(I46
I2
tp10
a(I47
I2
tp11
a(I67
I8
tp12
a(I70
I1
tp13
a(I71
I18
tp14
a(I72
I29
tp15
a(I80
I1
tp16
a(I84
I1
tp17
a(I86
I2
tp18
a(I94
I2
tp19
a(I99
I2
tp20
a(I110
I4
tp21
a(I157
I1
tp22
a(I182
I4
tp23
a(I213
I1
tp24
a(I234
I1
tp25
a(I264
I1
tp26
a(I266
I2
tp27
a(I268
I3
tp28
a(I273
I1
tp29
a(I297
I1
tp30
a(I303
I3
tp31
a(I315
I1
tp32
a(I331
I1
tp33
a(I338
I1
tp34
a(I356
I1
tp35
a(I362
I1
tp36
a(I371
I1
tp37
a(I372
I3
tp38
a(I377
I3
tp39
a(I380
I2
tp40
a(I381
I1
tp41
a(I385
I1
tp42
a(I388
I5
tp43
a(I390
I2
tp44
a(I392
I1
tp45
a(I396
I1
tp46
a(I402
I2
tp47
a(I403
I1
tp48
a(I407
I1
tp49
a(I419
I1
tp50
a(I420
I5
tp51
a(I421
I2
tp52
a(I423
I1
tp53
a(I427
I1
tp54
a(I430
I1
tp55
a(I437
I1
tp56
a(I438
I1
tp57
a(I443
I8
tp58
a(I446
I1
tp59
a(I451
I1
tp60
a(I452
I1
tp61
a(I453
I1
tp62
a(I464
I2
tp63
a(I485
I2
tp64
a(I512
I1
tp65
a(I516
I1
tp66
a(I534
I1
tp67
a(I537
I1
tp68
a(I572
I1
tp69
a(I618
I2
tp70
a(I649
I1
tp71
a(I650
I1
tp72
a(I651
I1
tp73
a(I652
I1
tp74
a(I653
I1
tp75
a(I654
I1
tp76
a(I655
I1
tp77
a(I656
I1
tp78
a(I657
I1
tp79
a(I658
I1
tp80
a(I659
I1
tp81
a(I660
I1
tp82
a(I661
I2
tp83
a(I662
I1
tp84
a(I663
I1
tp85
a(I664
I2
tp86
a(I665
I1
tp87
a(I666
I1
tp88
a(I667
I1
tp89
a(I668
I2
tp90
a(I669
I1
tp91
a(I670
I1
tp92
a(I671
I1
tp93
a(I672
I1
tp94
a(I673
I1
tp95
a(I674
I1
tp96
a(I675
I1
tp97
a(I676
I1
tp98
a(I677
I1
tp99
a(I678
I1
tp100
a(I679
I1
tp101
a(I680
I2
tp102
a(I681
I1
tp103
a(I682
I1
tp104
a(I683
I1
tp105
a(I684
I1
tp106
a(I685
I2
tp107
a(I686
I1
tp108
a(I687
I1
tp109
a(I688
I1
tp110
a(I689
I2
tp111
a(I690
I1
tp112
a(I691
I1
tp113
a(I692
I1
tp114
a(I693
I1
tp115
a(I694
I1
tp116
a(I695
I1
tp117
a(I696
I1
tp118
a(I697
I1
tp119
a(I698
I1
tp120
a(I699
I2
tp121
a(I700
I1
tp122
a(I701
I1
tp123
a(I702
I1
tp124
a(I703
I2
tp125
a(I704
I1
tp126
a(I705
I1
tp127
a(I706
I1
tp128
a(I707
I1
tp129
a(I708
I1
tp130
a(I709
I1
tp131
a(I710
I1
tp132
a(I711
I1
tp133
a(I712
I1
tp134
a(I713
I1
tp135
a(I714
I1
tp136
a(I715
I1
tp137
a(I716
I1
tp138
a(I717
I1
tp139
a(I718
I1
tp140
a(I719
I1
tp141
a(I720
I1
tp142
a(I721
I1
tp143
a(I722
I2
tp144
a(I723
I1
tp145
a(I724
I1
tp146
a(I725
I1
tp147
a(I726
I1
tp148
a(I727
I1
tp149
a(I728
I1
tp150
a(I729
I1
tp151
a(I730
I1
tp152
a(I731
I1
tp153
a(I732
I1
tp154
a(I733
I1
tp155
a(I734
I1
tp156
a(I735
I1
tp157
a(I736
I1
tp158
a(I737
I1
tp159
a(I738
I1
tp160
a(I739
I1
tp161
a(I740
I1
tp162
a(I741
I1
tp163
a(I742
I1
tp164
a(I743
I1
tp165
a(I744
I1
tp166
a(I745
I1
tp167
a(I746
I1
tp168
a(I747
I1
tp169
a(I748
I2
tp170
a(I749
I1
tp171
a(I750
I1
tp172
a(I751
I2
tp173
a(I752
I1
tp174
a(I753
I2
tp175
a(I754
I1
tp176
a(I755
I1
tp177
a(I756
I1
tp178
a(I757
I1
tp179
a(I758
I1
tp180
a(I759
I1
tp181
a(I760
I2
tp182
a(I761
I1
tp183
a(I762
I1
tp184
a(I763
I1
tp185
a(I764
I1
tp186
a(I765
I2
tp187
a(I766
I1
tp188
a(I767
I1
tp189
a(I768
I1
tp190
a(I769
I1
tp191
a(I770
I2
tp192
a(I771
I1
tp193
a(I772
I1
tp194
a(I773
I1
tp195
a(I774
I1
tp196
a(I775
I1
tp197
a(I776
I1
tp198
a(I777
I1
tp199
a(I778
I1
tp200
a(I779
I1
tp201
a.(lp0
(I4
I1
tp1
a(I6
I2
tp2
a(I7
I8
tp3
a(I9
I1
tp4
a(I12
I1
tp5
a(I19
I6
tp6
a(I28
I1
tp7
a(I32
I2
tp8
a(I36
I3
tp9
a(I43
I2
tp10
a(I67
I2
tp11
a(I69
I1
tp12
a(I70
I7
tp13
a(I71
I16
tp14
a(I72
I3
tp15
a(I73
I1
tp16
a(I80
I2
tp17
a(I85
I1
tp18
a(I87
I6
tp19
a(I94
I1
tp20
a(I99
I3
tp21
a(I110
I2
tp22
a(I119
I1
tp23
a(I120
I3
tp24
a(I261
I1
tp25
a(I283
I1
tp26
a(I331
I1
tp27
a(I588
I3
tp28
a(I628
I3
tp29
a(I658
I1
tp30
a(I666
I1
tp31
a(I737
I1
tp32
a(I756
I1
tp33
a(I780
I2
tp34
a(I781
I2
tp35
a(I782
I1
tp36
a(I783
I1
tp37
a(I784
I1
tp38
a(I785
I1
tp39
a(I786
I1
tp40
a(I787
I3
tp41
a(I788
I2
tp42
a(I789
I4
tp43
a(I790
I1
tp44
a(I791
I1
tp45
a(I792
I1
tp46
a(I793
I1
tp47
a(I794
I2
tp48
a(I795
I1
tp49
a(I796
I1
tp50
a(I797
I1
tp51
a(I798
I1
tp52
a(I799
I1
tp53
a(I800
I2
tp54
a(I801
I1
tp55
a(I802
I5
tp56
a(I803
I1
tp57
a(I804
I1
tp58
a(I805
I2
tp59
a(I806
I2
tp60
a(I807
I1
tp61
a(I808
I1
tp62
a(I809
I1
tp63
a(I810
I1
tp64
a(I811
I1
tp65
a(I812
I1
tp66
a(I813
I1
tp67
a(I814
I1
tp68
a(I815
I1
tp69
a(I816
I1
tp70
a(I817
I2
tp71
a(I818
I1
tp72
a(I819
I1
tp73
a(I820
I2
tp74
a(I821
I2
tp75
a(I822
I1
tp76
a(I823
I1
tp77
a(I824
I1
tp78
a(I825
I2
tp79
a(I826
I1
tp80
a(I827
I1
tp81
a(I828
I1
tp82
a(I829
I1
tp83
a(I830
I2
tp84
a(I831
I1
tp85
a(I832
I3
tp86
a(I833
I1
tp87
a(I834
I1
tp88
a(I835
I1
tp89
a(I836
I1
tp90
a(I837
I1
tp91
a(I838
I2
tp92
a.(lp0
(I6
I1
tp1
a(I7
I9
tp2
a(I11
I1
tp3
a(I12
I1
tp4
a(I16
I2
tp5
a(I19
I7
tp6
a(I28
I4
tp7
a(I32
I4
tp8
a(I36
I3
tp9
a(I40
I1
tp10
a(I43
I3
tp11
a(I67
I6
tp12
a(I69
I3
tp13
a(I70
I8
tp14
a(I71
I20
tp15
a(I72
I10
tp16
a(I80
I2
tp17
a(I85
I1
tp18
a(I87
I6
tp19
a(I91
I2
tp20
a(I94
I2
tp21
a(I99
I6
tp22
a(I103
I1
tp23
a(I110
I2
tp24
a(I116
I1
tp25
a(I119
I1
tp26
a(I120
I3
tp27
a(I166
I1
tp28
a(I182
I1
tp29
a(I239
I2
tp30
a(I331
I1
tp31
a(I495
I1
tp32
a(I498
I1
tp33
a(I512
I1
tp34
a(I588
I4
tp35
a(I613
I1
tp36
a(I628
I3
tp37
a(I658
I1
tp38
a(I666
I1
tp39
a(I737
I1
tp40
a(I756
I1
tp41
a(I780
I2
tp42
a(I781
I2
tp43
a(I782
I1
tp44
a(I786
I1
tp45
a(I787
I6
tp46
a(I788
I3
tp47
a(I790
I2
tp48
a(I791
I1
tp49
a(I793
I2
tp50
a(I795
I1
tp51
a(I796
I1
tp52
a(I797
I1
tp53
a(I798
I1
tp54
a(I799
I1
tp55
a(I800
I2
tp56
a(I801
I1
tp57
a(I802
I5
tp58
a(I804
I2
tp59
a(I805
I3
tp60
a(I806
I2
tp61
a(I808
I3
tp62
a(I810
I1
tp63
a(I811
I2
tp64
a(I812
I1
tp65
a(I813
I1
tp66
a(I815
I2
tp67
a(I816
I1
tp68
a(I817
I3
tp69
a(I820
I4
tp70
a(I821
I3
tp71
a(I823
I1
tp72
a(I824
I2
tp73
a(I825
I1
tp74
a(I827
I1
tp75
a(I829
I1
tp76
a(I830
I1
tp77
a(I831
I1
tp78
a(I832
I4
tp79
a(I833
I1
tp80
a(I835
I1
tp81
a(I836
I1
tp82
a(I837
I2
tp83
a(I838
I2
tp84
a(I839
I1
tp85
a(I840
I1
tp86
a(I841
I2
tp87
a(I842
I1
tp88
a(I843
I1
tp89
a(I844
I1
tp90
a(I845
I2
tp91
a(I846
I1
tp92
a(I847
I1
tp93
a(I848
I1
tp94
a(I849
I1
tp95
a(I850
I1
tp96
a(I851
I1
tp97
a(I852
I1
tp98
a(I853
I3
tp99
a(I854
I1
tp100
a(I855
I1
tp101
a(I856
I1
tp102
a(I857
I1
tp103
a(I858
I1
tp104
a(I859
I2
tp105
a(I860
I1
tp106
a(I861
I1
tp107
a(I862
I1
tp108
a(I863
I1
tp109
a(I864
I1
tp110
a(I865
I1
tp111
a(I866
I1
tp112
a(I867
I2
tp113
a(I868
I1
tp114
a(I869
I1
tp115
a(I870
I1
tp116
a(I871
I1
tp117
a(I872
I1
tp118
a(I873
I1
tp119
a(I874
I1
tp120
a(I875
I1
tp121
a(I876
I1
tp122
a(I877
I1
tp123
a(I878
I1
tp124
a.(lp0
(I6
I2
tp1
a(I9
I3
tp2
a(I11
I2
tp3
a(I12
I1
tp4
a(I28
I11
tp5
a(I32
I1
tp6
a(I40
I2
tp7
a(I43
I1
tp8
a(I54
I1
tp9
a(I67
I9
tp10
a(I69
I1
tp11
a(I71
I20
tp12
a(I72
I18
tp13
a(I73
I2
tp14
a(I74
I1
tp15
a(I80
I5
tp16
a(I84
I5
tp17
a(I85
I1
tp18
a(I87
I1
tp19
a(I91
I4
tp20
a(I99
I1
tp21
a(I103
I5
tp22
a(I104
I1
tp23
a(I106
I1
tp24
a(I109
I2
tp25
a(I110
I1
tp26
a(I116
I1
tp27
a(I119
I3
tp28
a(I120
I2
tp29
a(I182
I1
tp30
a(I185
I2
tp31
a(I186
I5
tp32
a(I208
I1
tp33
a(I213
I1
tp34
a(I264
I2
tp35
a(I283
I1
tp36
a(I297
I2
tp37
a(I303
I1
tp38
a(I316
I5
tp39
a(I377
I2
tp40
a(I396
I3
tp41
a(I431
I1
tp42
a(I445
I1
tp43
a(I454
I1
tp44
a(I469
I1
tp45
a(I485
I1
tp46
a(I516
I1
tp47
a(I628
I1
tp48
a(I678
I1
tp49
a(I693
I1
tp50
a(I694
I1
tp51
a(I707
I1
tp52
a(I727
I1
tp53
a(I732
I1
tp54
a(I742
I2
tp55
a(I764
I1
tp56
a(I778
I1
tp57
a(I781
I1
tp58
a(I783
I1
tp59
a(I787
I1
tp60
a(I800
I1
tp61
a(I802
I1
tp62
a(I813
I2
tp63
a(I821
I7
tp64
a(I833
I1
tp65
a(I835
I3
tp66
a(I837
I1
tp67
a(I838
I1
tp68
a(I845
I2
tp69
a(I853
I1
tp70
a(I859
I3
tp71
a(I865
I2
tp72
a(I870
I1
tp73
a(I879
I1
tp74
a(I880
I1
tp75
a(I881
I1
tp76
a(I882
I1
tp77
a(I883
I2
tp78
a(I884
I1
tp79
a(I885
I2
tp80
a(I886
I1
tp81
a(I887
I1
tp82
a(I888
I1
tp83
a(I889
I1
tp84
a(I890
I1
tp85
a(I891
I1
tp86
a(I892
I1
tp87
a(I893
I2
tp88
a(I894
I1
tp89
a(I895
I1
tp90
a(I896
I1
tp91
a(I897
I1
tp92
a(I898
I1
tp93
a(I899
I1
tp94
a(I900
I1
tp95
a(I901
I1
tp96
a(I902
I1
tp97
a(I903
I1
tp98
a(I904
I1
tp99
a(I905
I1
tp100
a(I906
I1
tp101
a(I907
I1
tp102
a(I908
I1
tp103
a(I909
I1
tp104
a(I910
I1
tp105
a(I911
I1
tp106
a(I912
I1
tp107
a(I913
I1
tp108
a(I914
I1
tp109
a(I915
I1
tp110
a(I916
I1
tp111
a(I917
I1
tp112
a(I918
I1
tp113
a(I919
I2
tp114
a(I920
I1
tp115
a(I921
I2
tp116
a(I922
I1
tp117
a(I923
I1
tp118
a(I924
I2
tp119
a(I925
I1
tp120
a(I926
I1
tp121
a(I927
I1
tp122
a(I928
I2
tp123
a(I929
I1
tp124
a(I930
I1
tp125
a(I931
I1
tp126
a(I932
I1
tp127
a(I933
I1
tp128
a(I934
I10
tp129
a(I935
I1
tp130
a(I936
I1
tp131
a(I937
I1
tp132
a(I938
I1
tp133
a(I939
I1
tp134
a(I940
I1
tp135
a(I941
I1
tp136
a(I942
I2
tp137
a(I943
I1
tp138
a(I944
I1
tp139
a(I945
I1
tp140
a(I946
I1
tp141
a(I947
I3
tp142
a(I948
I1
tp143
a(I949
I1
tp144
a(I950
I1
tp145
a(I951
I1
tp146
a(I952
I1
tp147
a(I953
I1
tp148
a(I954
I1
tp149
a(I955
I1
tp150
a(I956
I1
tp151
a(I957
I1
tp152
a(I958
I1
tp153
a(I959
I1
tp154
a(I960
I1
tp155
a(I961
I1
tp156
a(I962
I1
tp157
a(I963
I1
tp158
a(I964
I3
tp159
a(I965
I1
tp160
a(I966
I2
tp161
a(I967
I1
tp162
a(I968
I1
tp163
a(I969
I1
tp164
a(I970
I1
tp165
a(I971
I1
tp166
a(I972
I3
tp167
a(I973
I1
tp168
a(I974
I1
tp169
a(I975
I1
tp170
a(I976
I1
tp171
a(I977
I1
tp172
a(I978
I1
tp173
a(I979
I1
tp174
a(I980
I1
tp175
a(I981
I1
tp176
a(I982
I1
tp177
a(I983
I1
tp178
a(I984
I1
tp179
a(I985
I1
tp180
a(I986
I1
tp181
a(I987
I2
tp182
a(I988
I1
tp183
a(I989
I1
tp184
a(I990
I2
tp185
a(I991
I1
tp186
a(I992
I1
tp187
a.(lp0
(I11
I1
tp1
a(I16
I3
tp2
a(I19
I1
tp3
a(I28
I4
tp4
a(I34
I1
tp5
a(I36
I1
tp6
a(I46
I3
tp7
a(I67
I9
tp8
a(I69
I1
tp9
a(I71
I10
tp10
a(I72
I17
tp11
a(I73
I1
tp12
a(I80
I2
tp13
a(I99
I2
tp14
a(I103
I1
tp15
a(I116
I2
tp16
a(I166
I1
tp17
a(I182
I4
tp18
a(I186
I2
tp19
a(I199
I1
tp20
a(I264
I1
tp21
a(I316
I2
tp22
a(I346
I1
tp23
a(I377
I3
tp24
a(I396
I1
tp25
a(I454
I2
tp26
a(I512
I1
tp27
a(I575
I2
tp28
a(I598
I2
tp29
a(I608
I1
tp30
a(I628
I1
tp31
a(I868
I1
tp32
a(I873
I1
tp33
a(I928
I2
tp34
a(I967
I1
tp35
a(I997
I1
tp36
a(I1113
I2
tp37
a(I1114
I1
tp38
a(I1115
I1
tp39
a(I1116
I1
tp40
a(I1117
I1
tp41
a(I1118
I1
tp42
a(I1119
I1
tp43
a(I1120
I1
tp44
a(I1121
I2
tp45
a(I1122
I1
tp46
a(I1123
I1
tp47
a(I1124
I1
tp48
a(I1125
I1
tp49
a(I1126
I1
tp50
a(I1127
I1
tp51
a(I1128
I2
tp52
a(I1129
I1
tp53
a(I1130
I1
tp54
a(I1131
I1
tp55
a(I1132
I1
tp56
a(I1133
I1
tp57
a(I1134
I2
tp58
a(I1135
I1
tp59
a(I1136
I2
tp60
a(I1137
I1
tp61
a(I1138
I1
tp62
a(I1139
I1
tp63
a(I1140
I1
tp64
a(I1141
I1
tp65
a(I1142
I1
tp66
a(I1143
I1
tp67
a(I1144
I1
tp68
a(I1145
I1
tp69
a(I1146
I1
tp70
a(I1147
I1
tp71
a(I1148
I1
tp72
a(I1149
I1
tp73
a(I1150
I1
tp74
a(I1151
I1
tp75
a(I1152
I2
tp76
a(I1153
I1
tp77
a(I1154
I1
tp78
a(I1155
I1
tp79
a(I1156
I1
tp80
a(I1157
I1
tp81
a(I1158
I1
tp82
a(I1159
I8
tp83
a(I1160
I1
tp84
a(I1161
I1
tp85
a(I1162
I1
tp86
a(I1163
I1
tp87
a(I1164
I1
tp88
a(I1165
I1
tp89
a(I1166
I1
tp90
a(I1167
I2
tp91
a(I1168
I1
tp92
a(I1169
I1
tp93
a(I1170
I1
tp94
a(I1171
I1
tp95
a(I1172
I1
tp96
a(I1173
I1
tp97
a(I1174
I1
tp98
a(I1175
I1
tp99
a(I1176
I1
tp100
a(I1177
I1
tp101
a(I1178
I1
tp102
a(I1179
I1
tp103
a(I1180
I4
tp104
a(I1181
I1
tp105
a(I1182
I1
tp106
a(I1183
I1
tp107
a(I1184
I1
tp108
a(I1185
I1
tp109
a(I1186
I1
tp110
a(I1187
I1
tp111
a(I1188
I1
tp112
a(I1189
I1
tp113
a(I1190
I1
tp114
a(I1191
I1
tp115
a(I1192
I1
tp116
a(I1193
I2
tp117
a(I1194
I1
tp118
a(I1195
I1
tp119
a(I1196
I1
tp120
a(I1197
I1
tp121
a(I1198
I1
tp122
a(I1199
I1
tp123
a(I1200
I1
tp124
a(I1201
I1
tp125
a(I1202
I1
tp126
a(I1203
I1
tp127
a(I1204
I1
tp128
a.(lp0
(I6
I4
tp1
a(I7
I2
tp2
a(I16
I1
tp3
a(I23
I1
tp4
a(I28
I17
tp5
a(I31
I1
tp6
a(I34
I3
tp7
a(I36
I1
tp8
a(I46
I2
tp9
a(I51
I2
tp10
a(I67
I17
tp11
a(I71
I13
tp12
a(I72
I9
tp13
a(I80
I1
tp14
a(I99
I6
tp15
a(I106
I1
tp16
a(I116
I4
tp17
a(I122
I3
tp18
a(I167
I1
tp19
a(I182
I1
tp20
a(I186
I6
tp21
a(I213
I1
tp22
a(I276
I1
tp23
a(I283
I3
tp24
a(I287
I1
tp25
a(I297
I2
tp26
a(I316
I6
tp27
a(I353
I1
tp28
a(I377
I5
tp29
a(I396
I2
tp30
a(I407
I1
tp31
a(I420
I2
tp32
a(I430
I2
tp33
a(I436
I1
tp34
a(I479
I1
tp35
a(I512
I1
tp36
a(I565
I2
tp37
a(I575
I4
tp38
a(I598
I4
tp39
a(I608
I2
tp40
a(I620
I1
tp41
a(I681
I1
tp42
a(I737
I2
tp43
a(I775
I1
tp44
a(I825
I2
tp45
a(I837
I1
tp46
a(I846
I1
tp47
a(I868
I1
tp48
a(I873
I2
tp49
a(I874
I1
tp50
a(I942
I1
tp51
a(I1056
I1
tp52
a(I1058
I1
tp53
a(I1081
I1
tp54
a(I1113
I2
tp55
a(I1121
I1
tp56
a(I1139
I1
tp57
a(I1147
I1
tp58
a(I1152
I8
tp59
a(I1153
I1
tp60
a(I1167
I1
tp61
a(I1180
I4
tp62
a(I1201
I1
tp63
a(I1205
I1
tp64
a(I1206
I1
tp65
a(I1207
I1
tp66
a(I1208
I1
tp67
a(I1209
I1
tp68
a(I1210
I1
tp69
a(I1211
I1
tp70
a(I1212
I1
tp71
a(I1213
I1
tp72
a(I1214
I1
tp73
a(I1215
I1
tp74
a(I1216
I1
tp75
a(I1217
I1
tp76
a(I1218
I1
tp77
a(I1219
I1
tp78
a(I1220
I1
tp79
a(I1221
I1
tp80
a(I1222
I1
tp81
a(I1223
I1
tp82
a(I1224
I1
tp83
a(I1225
I1
tp84
a(I1226
I1
tp85
a(I1227
I1
tp86
a(I1228
I1
tp87
a(I1229
I1
tp88
a(I1230
I1
tp89
a(I1231
I1
tp90
a(I1232
I2
tp91
a(I1233
I1
tp92
a(I1234
I1
tp93
a(I1235
I1
tp94
a(I1236
I1
tp95
a(I1237
I2
tp96
a(I1238
I1
tp97
a(I1239
I1
tp98
a(I1240
I1
tp99
a(I1241
I1
tp100
a(I1242
I1
tp101
a(I1243
I1
tp102
a(I1244
I1
tp103
a(I1245
I1
tp104
a(I1246
I1
tp105
a(I1247
I1
tp106
a(I1248
I1
tp107
a(I1249
I1
tp108
a(I1250
I1
tp109
a(I1251
I1
tp110
a(I1252
I1
tp111
a(I1253
I2
tp112
a(I1254
I1
tp113
a(I1255
I3
tp114
a(I1256
I5
tp115
a(I1257
I1
tp116
a(I1258
I1
tp117
a(I1259
I1
tp118
a(I1260
I1
tp119
a(I1261
I1
tp120
a(I1262
I2
tp121
a(I1263
I1
tp122
a(I1264
I1
tp123
a(I1265
I1
tp124
a(I1266
I1
tp125
a(I1267
I2
tp126
a(I1268
I1
tp127
a(I1269
I1
tp128
a(I1270
I1
tp129
a(I1271
I1
tp130
a(I1272
I1
tp131
a(I1273
I1
tp132
a(I1274
I1
tp133
a(I1275
I1
tp134
a(I1276
I1
tp135
a(I1277
I1
tp136
a(I1278
I1
tp137
a(I1279
I1
tp138
a(I1280
I1
tp139
a(I1281
I1
tp140
a(I1282
I1
tp141
a(I1283
I2
tp142
a(I1284
I1
tp143
a(I1285
I1
tp144
a(I1286
I1
tp145
a(I1287
I1
tp146
a(I1288
I1
tp147
a.