(lp0
(I0
cnumpy.core.multiarray
scalar
p1
(cnumpy
dtype
p2
(S'f8'
p3
I0
I1
tp4
Rp5
(I3
S'<'
p6
NNNI-1
I-1
I0
tp7
bS'\x16\x10\xd9\x06D&\x98?'
p8
tp9
Rp10
tp11
a(I1
g1
(g5
S'\x8a_\x17\xb5\xbc\xfa\xec?'
p12
tp13
Rp14
tp15
a(I2
g1
(g5
S'\xab\xc5\xc8\x9d\x05"\x98?'
p16
tp17
Rp18
tp19
a(I3
g1
(g5
S'\xb1h\xc0\x8eU@\x98?'
p20
tp21
Rp22
tp23
a(I4
g1
(g5
S'7\xd0\xb1)\xca\x1f\x98?'
p24
tp25
Rp26
tp27
a.(lp0
(I0
cnumpy.core.multiarray
scalar
p1
(cnumpy
dtype
p2
(S'f8'
p3
I0
I1
tp4
Rp5
(I3
S'<'
p6
NNNI-1
I-1
I0
tp7
bS'C\xe0s\xb9\\\xa6\x9d?'
p8
tp9
Rp10
tp11
a(I1
g1
(g5
S'\xf1\xda!\xbb\xd5\x85\x9d?'
p12
tp13
Rp14
tp15
a(I2
g1
(g5
S'\xf5b\x11\x89~~\x9d?'
p16
tp17
Rp18
tp19
a(I3
g1
(g5
S'!\xa4~\x1c\x86N\xec?'
p20
tp21
Rp22
tp23
a(I4
g1
(g5
S'\xb6]\x84r\x8b\x84\x9d?'
p24
tp25
Rp26
tp27
a.(lp0
(I0
cnumpy.core.multiarray
scalar
p1
(cnumpy
dtype
p2
(S'f8'
p3
I0
I1
tp4
Rp5
(I3
S'<'
p6
NNNI-1
I-1
I0
tp7
bS'\xbd\xc0\xc9\x07 u\x8e?'
p8
tp9
Rp10
tp11
a(I1
g1
(g5
S'n\x15O\xcf\xe8~\x8e?'
p12
tp13
Rp14
tp15
a(I2
g1
(g5
S'&D\xad5\xc5t\x8e?'
p16
tp17
Rp18
tp19
a(I3
g1
(g5
S'u7-\xd4\xa1\x18\xee?'
p20
tp21
Rp22
tp23
a(I4
g1
(g5
S'h\x08\xec\xe7\xbcn\x8e?'
p24
tp25
Rp26
tp27
a.(lp0
(I0
cnumpy.core.multiarray
scalar
p1
(cnumpy
dtype
p2
(S'f8'
p3
I0
I1
tp4
Rp5
(I3
S'<'
p6
NNNI-1
I-1
I0
tp7
bS'\xcc\xc7i_?\x8f\xed?'
p8
tp9
Rp10
tp11
a(I1
g1
(g5
S'Dl\xa4!\xd6\x8d\x93?'
p12
tp13
Rp14
tp15
a(I2
g1
(g5
S'\xd3\xf8\x9a\xc2F\x95\x93?'
p16
tp17
Rp18
tp19
a(I3
g1
(g5
S'B\x0fZ\xb9f|\x93?'
p20
tp21
Rp22
tp23
a(I4
g1
(g5
S'\xf2\x91-u\x90x\x93?'
p24
tp25
Rp26
tp27
a.(lp0
(I0
cnumpy.core.multiarray
scalar
p1
(cnumpy
dtype
p2
(S'f8'
p3
I0
I1
tp4
Rp5
(I3
S'<'
p6
NNNI-1
I-1
I0
tp7
bS'V\xa0\x86,\\P\xed?'
p8
tp9
Rp10
tp11
a(I1
g1
(g5
S'\xaeS\x12Q\xa8\x81\x95?'
p12
tp13
Rp14
tp15
a(I2
g1
(g5
S'x\x9d\xea\xb8\xc3v\x95?'
p16
tp17
Rp18
tp19
a(I3
g1
(g5
S'\xe76*`\xef\x8d\x95?'
p20
tp21
Rp22
tp23
a(I4
g1
(g5
S'l\xcd\x04\x05\x1fn\x95?'
p24
tp25
Rp26
tp27
a.(lp0
(I0
cnumpy.core.multiarray
scalar
p1
(cnumpy
dtype
p2
(S'f8'
p3
I0
I1
tp4
Rp5
(I3
S'<'
p6
NNNI-1
I-1
I0
tp7
bS'h\xef\x86\x82;\xcf\x93?'
p8
tp9
Rp10
tp11
a(I1
g1
(g5
S'\xdb\x98\xb7^\x89\xcb\x93?'
p12
tp13
Rp14
tp15
a(I2
g1
(g5
S'\x82\xe2\xa0\xb5(\x86\xed?'
p16
tp17
Rp18
tp19
a(I3
g1
(g5
S'R\x16\x850\x1f\xd7\x93?'
p20
tp21
Rp22
tp23
a(I4
g1
(g5
S'9\x11 :\x05\xc9\x93?'
p24
tp25
Rp26
tp27
a.(lp0
(I0
cnumpy.core.multiarray
scalar
p1
(cnumpy
dtype
p2
(S'f8'
p3
I0
I1
tp4
Rp5
(I3
S'<'
p6
NNNI-1
I-1
I0
tp7
bS'\xf9\xce\xde\x17\xa7\x04\x8f?'
p8
tp9
Rp10
tp11
a(I1
g1
(g5
S'\xe9dg\xd2\xbd\x10\xee?'
p12
tp13
Rp14
tp15
a(I2
g1
(g5
S'|Nr\xe9.&\x8f?'
p16
tp17
Rp18
tp19
a(I3
g1
(g5
S'\xb8[\xf4\xa8@\xd5\x8e?'
p20
tp21
Rp22
tp23
a(I4
g1
(g5
S'tL\xe1\xbbt\xd0\x8e?'
p24
tp25
Rp26
tp27
a.(lp0
(I0
cnumpy.core.multiarray
scalar
p1
(cnumpy
dtype
p2
(S'f8'
p3
I0
I1
tp4
Rp5
(I3
S'<'
p6
NNNI-1
I-1
I0
tp7
bS'\xe0\xeb|\x1e\xb9K\x97?'
p8
tp9
Rp10
tp11
a(I1
g1
(g5
S'Nu\xcc\xe8\xc6\x0f\x97?'
p12
tp13
Rp14
tp15
a(I2
g1
(g5
S'\xea\x13\xf5\x9fm\xf7\x96?'
p16
tp17
Rp18
tp19
a(I3
g1
(g5
S'\xc7b\xe2\x17!\xfc\x96?'
p20
tp21
Rp22
tp23
a(I4
g1
(g5
S'A\xf9\x06\x8a\x87\x1d\xed?'
p24
tp25
Rp26
tp27
a.(lp0
(I0
cnumpy.core.multiarray
scalar
p1
(cnumpy
dtype
p2
(S'f8'
p3
I0
I1
tp4
Rp5
(I3
S'<'
p6
NNNI-1
I-1
I0
tp7
bS'.\xadT\x93 \x82\xed?'
p8
tp9
Rp10
tp11
a(I1
g1
(g5
S'\x0fq\xea\xff!\xe9\x93?'
p12
tp13
Rp14
tp15
a(I2
g1
(g5
S'\xdaNIt\xe2\xd2\x93?'
p16
tp17
Rp18
tp19
a(I3
g1
(g5
S'G\x1e\xe1\xea\xd3\xd4\x93?'
p20
tp21
Rp22
tp23
a(I4
g1
(g5
S'<|U6\x15+\x94?'
p24
tp25
Rp26
tp27
a.(lp0
(I0
cnumpy.core.multiarray
scalar
p1
(cnumpy
dtype
p2
(S'f8'
p3
I0
I1
tp4
Rp5
(I3
S'<'
p6
NNNI-1
I-1
I0
tp7
bS'\x0e\x94\xbasf\xd7\x91?'
p8
tp9
Rp10
tp11
a(I1
g1
(g5
S'\xd9\xd4\xcd4\xb4\xc5\xed?'
p12
tp13
Rp14
tp15
a(I2
g1
(g5
S'\xe2\xdf\xf6\x7f\x82\xcb\x91?'
p16
tp17
Rp18
tp19
a(I3
g1
(g5
S'K\x03\x90\x1e\x0e\xd1\x91?'
p20
tp21
Rp22
tp23
a(I4
g1
(g5
S'\x96\xed\x03T\x82\xd5\x91?'
p24
tp25
Rp26
tp27
a.(lp0
(I0
cnumpy.core.multiarray
scalar
p1
(cnumpy
dtype
p2
(S'f8'
p3
I0
I1
tp4
Rp5
(I3
S'<'
p6
NNNI-1
I-1
I0
tp7
bS'\xea]\x83\x10\xe4\xa2\x94?'
p8
tp9
Rp10
tp11
a(I1
g1
(g5
S'uHSU]\xa6\x94?'
p12
tp13
Rp14
tp15
a(I2
g1
(g5
S'bXe\xae\x91j\xed?'
p16
tp17
Rp18
tp19
a(I3
g1
(g5
S'\xed\x8bf\xb5w\xc2\x94?'
p20
tp21
Rp22
tp23
a(I4
g1
(g5
S'\xa0\xc1\x17\x18\x11\xa2\x94?'
p24
tp25
Rp26
tp27
a.(lp0
(I0
cnumpy.core.multiarray
scalar
p1
(cnumpy
dtype
p2
(S'f8'
p3
I0
I1
tp4
Rp5
(I3
S'<'
p6
NNNI-1
I-1
I0
tp7
bS'\xeeH4\x92\xf3\x93\x92?'
p8
tp9
Rp10
tp11
a(I1
g1
(g5
S'_y\xe8X\x07\x94\x92?'
p12
tp13
Rp14
tp15
a(I2
g1
(g5
S"9'~S\x9b\xa2\x92?"
p16
tp17
Rp18
tp19
a(I3
g1
(g5
S'\xa0\xba\xa7\x13"\xad\xed?'
p20
tp21
Rp22
tp23
a(I4
g1
(g5
S"\x8c\xc2mL'\x91\x92?"
p24
tp25
Rp26
tp27
a.